target datalayout = "e-m:e-p270:32:32-p271:32:32-p272:64:64-i64:64-i128:128-f80:128-n8:16:32:64-S128"
target triple = "x86_64-pc-linux-gnu"

@SysCache = internal global [85 x ptr] zeroinitializer, align 16

; Function Attrs: nounwind uwtable
define dso_local void @InitCatalogCachePhase2() #0 {
  %1 = alloca i32, align 4
  call void @llvm.lifetime.start.p0(i64 4, ptr %1) #6
  store i32 0, ptr %1, align 4
  br label %2

2:                                                ; preds = %10, %0
  %3 = load i32, ptr %1, align 4
  %4 = icmp slt i32 %3, 85
  br i1 %4, label %5, label %13

5:                                                ; preds = %2
  %6 = load i32, ptr %1, align 4
  %7 = sext i32 %6 to i64
  %8 = getelementptr inbounds [85 x ptr], ptr @SysCache, i64 0, i64 %7
  %9 = load ptr, ptr %8, align 8
  call void @InitCatCachePhase2(ptr noundef %9, i1 noundef zeroext true)
  br label %10

10:                                               ; preds = %5
  %11 = load i32, ptr %1, align 4
  %12 = add i32 %11, 1
  store i32 %12, ptr %1, align 4
  br label %2, !llvm.loop !7

13:                                               ; preds = %2
  call void @llvm.lifetime.end.p0(i64 4, ptr %1) #6
  ret void
}