; Function Attrs: nounwind uwtable
define dso_local void @InitCatalogCachePhase2() local_unnamed_addr #0 {
  br label %1

1:                                                ; preds = %0, %1
  %indvars.iv = phi i64 [ 0, %0 ], [ %indvars.iv.next, %1 ]
  %2 = getelementptr inbounds nuw [85 x ptr], ptr @SysCache, i64 0, i64 %indvars.iv
  %3 = load ptr, ptr %2, align 8
  tail call void @InitCatCachePhase2(ptr noundef %3, i1 noundef zeroext true) #11
  %indvars.iv.next = add nuw nsw i64 %indvars.iv, 1
  %exitcond.not = icmp eq i64 %indvars.iv.next, 85
  br i1 %exitcond.not, label %4, label %1, !llvm.loop !7

4:                                                ; preds = %1
  ret void
}